target datalayout = "e-m:e-p270:32:32-p271:32:32-p272:64:64-i64:64-i128:128-f80:128-n8:16:32:64-S128"
target triple = "x86_64-pc-linux-gnu"

@.str.1 = private unnamed_addr constant [6 x i8] c"spi.c\00", align 1
@.str.15 = private unnamed_addr constant [39 x i8] c"invalid portal in SPI cursor operation\00", align 1
@__func__.SPI_cursor_close = private unnamed_addr constant [17 x i8] c"SPI_cursor_close\00", align 1

; Function Attrs: nounwind uwtable
define dso_local void @SPI_cursor_close(ptr noundef %0) #0 {
  %2 = alloca ptr, align 8
  store ptr %0, ptr %2, align 8
  %3 = load ptr, ptr %2, align 8
  %4 = icmp ne ptr %3, null
  br i1 %4, label %15, label %5

5:                                                ; preds = %1
  br label %6

6:                                                ; preds = %5
  br i1 true, label %7, label %9

7:                                                ; preds = %6
  %8 = call zeroext i1 @errstart_cold(i32 noundef 21, ptr noundef null) #10
  br i1 %8, label %11, label %13

9:                                                ; preds = %6
  %10 = call zeroext i1 @errstart(i32 noundef 21, ptr noundef null)
  br i1 %10, label %11, label %13

11:                                               ; preds = %9, %7
  %12 = call i32 (ptr, ...) @errmsg_internal(ptr noundef @.str.15)
  call void @errfinish(ptr noundef @.str.1, i32 noundef 1865, ptr noundef @__func__.SPI_cursor_close)
  br label %13

13:                                               ; preds = %11, %9, %7
  unreachable

14:                                               ; No predecessors!
  br label %15

15:                                               ; preds = %14, %1
  %16 = load ptr, ptr %2, align 8
  call void @PortalDrop(ptr noundef %16, i1 noundef zeroext false)
  ret void
}