; Function Attrs: nounwind uwtable
define dso_local void @SPI_cursor_close(ptr noundef %0) local_unnamed_addr #0 {
  %.not = icmp eq ptr %0, null
  br i1 %.not, label %2, label %5

2:                                                ; preds = %1
  %3 = tail call zeroext i1 @errstart_cold(i32 noundef 21, ptr noundef null) #14
  tail call void @llvm.assume(i1 %3)
  %4 = tail call i32 (ptr, ...) @errmsg_internal(ptr noundef nonnull @.str.15) #15
  tail call void @errfinish(ptr noundef nonnull @.str.1, i32 noundef 1865, ptr noundef nonnull @__func__.SPI_cursor_close) #15
  unreachable

5:                                                ; preds = %1
  tail call void @PortalDrop(ptr noundef nonnull %0, i1 noundef zeroext false) #15
  ret void
}